; Function Attrs: mustprogress uwtable
define noundef ptr @_ZN6icu_7713LikelySubtags12getSingletonER10UErrorCode(ptr noundef nonnull align 4 dereferenceable(4) %0) local_unnamed_addr #1 align 2 {
  %2 = load i32, ptr %0, align 4, !tbaa !13
  %3 = icmp slt i32 %2, 1
  br i1 %3, label %4, label %15

4:                                                ; preds = %1
  %5 = load atomic i32, ptr @_ZN6icu_7712_GLOBAL__N_19gInitOnceE acquire, align 4
  %.not11.i = icmp eq i32 %5, 2
  br i1 %.not11.i, label %10, label %6

6:                                                ; preds = %4
  %7 = tail call noundef signext i8 @_ZN6icu_7720umtx_initImplPreInitERNS_9UInitOnceE(ptr noundef nonnull align 4 dereferenceable(8) @_ZN6icu_7712_GLOBAL__N_19gInitOnceE)
  %.not12.i = icmp eq i8 %7, 0
  br i1 %.not12.i, label %10, label %8

8:                                                ; preds = %6
  tail call void @_ZN6icu_7713LikelySubtags17initLikelySubtagsER10UErrorCode(ptr noundef nonnull align 4 dereferenceable(4) %0)
  %9 = load i32, ptr %0, align 4, !tbaa !13
  store i32 %9, ptr getelementptr inbounds nuw (i8, ptr @_ZN6icu_7712_GLOBAL__N_19gInitOnceE, i64 4), align 4, !tbaa !104
  tail call void @_ZN6icu_7721umtx_initImplPostInitERNS_9UInitOnceE(ptr noundef nonnull align 4 dereferenceable(8) @_ZN6icu_7712_GLOBAL__N_19gInitOnceE)
  br label %_ZN6icu_7713umtx_initOnceERNS_9UInitOnceEPFvR10UErrorCodeES3_.exit

10:                                               ; preds = %6, %4
  %11 = load i32, ptr getelementptr inbounds nuw (i8, ptr @_ZN6icu_7712_GLOBAL__N_19gInitOnceE, i64 4), align 4, !tbaa !104
  %12 = icmp slt i32 %11, 1
  br i1 %12, label %_ZN6icu_7713umtx_initOnceERNS_9UInitOnceEPFvR10UErrorCodeES3_.exit, label %13

13:                                               ; preds = %10
  store i32 %11, ptr %0, align 4, !tbaa !13
  br label %_ZN6icu_7713umtx_initOnceERNS_9UInitOnceEPFvR10UErrorCodeES3_.exit

_ZN6icu_7713umtx_initOnceERNS_9UInitOnceEPFvR10UErrorCodeES3_.exit: ; preds = %8, %10, %13
  %14 = load ptr, ptr @_ZN6icu_7712_GLOBAL__N_114gLikelySubtagsE, align 8, !tbaa !28
  br label %15

15:                                               ; preds = %1, %_ZN6icu_7713umtx_initOnceERNS_9UInitOnceEPFvR10UErrorCodeES3_.exit
  %.0 = phi ptr [ %14, %_ZN6icu_7713umtx_initOnceERNS_9UInitOnceEPFvR10UErrorCodeES3_.exit ], [ null, %1 ]
  ret ptr %.0
}